target datalayout = "e-m:e-p270:32:32-p271:32:32-p272:64:64-i64:64-i128:128-f80:128-n8:16:32:64-S128"
target triple = "x86_64-pc-linux-gnu"

%"struct.std::__1::__locale::__locale_guard" = type { ptr }
%"class.std::__1::locale::facet" = type { %"class.std::__1::__shared_count" }
%"class.std::__1::__shared_count" = type { ptr, i64 }
%"class.std::__1::codecvt.37" = type { %"class.std::__1::locale::facet", ptr }

; Function Attrs: mustprogress nounwind uwtable
define linkonce_odr hidden void @_ZNSt3__18__locale14__locale_guardD2B8ne210000Ev(ptr noundef nonnull align 8 dereferenceable(8) %0) unnamed_addr #0 comdat align 2 {
  %2 = alloca ptr, align 8
  store ptr %0, ptr %2, align 8, !tbaa !732
  %3 = load ptr, ptr %2, align 8
  %4 = getelementptr inbounds nuw %"struct.std::__1::__locale::__locale_guard", ptr %3, i32 0, i32 0
  %5 = load ptr, ptr %4, align 8, !tbaa !734
  %6 = icmp ne ptr %5, null
  br i1 %6, label %7, label %11

7:                                                ; preds = %1
  %8 = getelementptr inbounds nuw %"struct.std::__1::__locale::__locale_guard", ptr %3, i32 0, i32 0
  %9 = load ptr, ptr %8, align 8, !tbaa !734
  %10 = call ptr @uselocale(ptr noundef %9) #13
  br label %11

11:                                               ; preds = %7, %1
  ret void
}

; Function Attrs: mustprogress nounwind uwtable
define linkonce_odr hidden void @_ZNSt3__18__locale14__locale_guardC2B8ne210000ERP15__locale_struct(ptr noundef nonnull align 8 dereferenceable(8) %0, ptr noundef nonnull align 8 dereferenceable(8) %1) unnamed_addr #0 comdat align 2 {
  %3 = alloca ptr, align 8
  %4 = alloca ptr, align 8
  store ptr %0, ptr %3, align 8, !tbaa !732
  store ptr %1, ptr %4, align 8, !tbaa !615
  %5 = load ptr, ptr %3, align 8
  %6 = getelementptr inbounds nuw %"struct.std::__1::__locale::__locale_guard", ptr %5, i32 0, i32 0
  %7 = load ptr, ptr %4, align 8, !tbaa !615
  %8 = load ptr, ptr %7, align 8, !tbaa !102
  %9 = call ptr @uselocale(ptr noundef %8) #13
  store ptr %9, ptr %6, align 8, !tbaa !734
  ret void
}

; Function Attrs: inlinehint mustprogress uwtable
define linkonce_odr hidden noundef i64 @_ZNSt3__18__locale9__wcrtombB8ne210000EPcwP11__mbstate_tP15__locale_struct(ptr noundef %0, i32 noundef signext %1, ptr noundef %2, ptr noundef %3) #6 comdat {
  %5 = alloca ptr, align 8
  %6 = alloca i32, align 4
  %7 = alloca ptr, align 8
  %8 = alloca ptr, align 8
  %9 = alloca %"struct.std::__1::__locale::__locale_guard", align 8
  store ptr %0, ptr %5, align 8, !tbaa !9
  store i32 %1, ptr %6, align 4, !tbaa !23
  store ptr %2, ptr %7, align 8, !tbaa !55
  store ptr %3, ptr %8, align 8, !tbaa !102
  call void @llvm.lifetime.start.p0(i64 8, ptr %9) #13
  call void @_ZNSt3__18__locale14__locale_guardC2B8ne210000ERP15__locale_struct(ptr noundef nonnull align 8 dereferenceable(8) %9, ptr noundef nonnull align 8 dereferenceable(8) %8)
  %10 = load ptr, ptr %5, align 8, !tbaa !9
  %11 = load i32, ptr %6, align 4, !tbaa !23
  %12 = load ptr, ptr %7, align 8, !tbaa !55
  %13 = call i64 @wcrtomb(ptr noundef %10, i32 noundef signext %11, ptr noundef %12) #13
  call void @_ZNSt3__18__locale14__locale_guardD2B8ne210000Ev(ptr noundef nonnull align 8 dereferenceable(8) %9) #13
  call void @llvm.lifetime.end.p0(i64 8, ptr %9) #13
  ret i64 %13
}

; Function Attrs: mustprogress uwtable
define dso_local noundef i32 @_ZNKSt3__17codecvtIwc11__mbstate_tE10do_unshiftERS1_PcS4_RS4_(ptr noundef nonnull align 8 dereferenceable(24) %0, ptr noundef nonnull align 4 dereferenceable(8) %1, ptr noundef %2, ptr noundef %3, ptr noundef nonnull align 8 dereferenceable(8) %4) unnamed_addr #2 align 2 {
  %6 = alloca i32, align 4
  %7 = alloca ptr, align 8
  %8 = alloca ptr, align 8
  %9 = alloca ptr, align 8
  %10 = alloca ptr, align 8
  %11 = alloca ptr, align 8
  %12 = alloca [16 x i8], align 16
  %13 = alloca i64, align 8
  %14 = alloca i32, align 4
  %15 = alloca ptr, align 8
  store ptr %0, ptr %7, align 8, !tbaa !376
  store ptr %1, ptr %8, align 8, !tbaa !55
  store ptr %2, ptr %9, align 8, !tbaa !9
  store ptr %3, ptr %10, align 8, !tbaa !9
  store ptr %4, ptr %11, align 8, !tbaa !95
  %16 = load ptr, ptr %7, align 8
  %17 = load ptr, ptr %9, align 8, !tbaa !9
  %18 = load ptr, ptr %11, align 8, !tbaa !95
  store ptr %17, ptr %18, align 8, !tbaa !9
  call void @llvm.lifetime.start.p0(i64 16, ptr %12) #13
  call void @llvm.lifetime.start.p0(i64 8, ptr %13) #13
  %19 = getelementptr inbounds [16 x i8], ptr %12, i64 0, i64 0
  %20 = load ptr, ptr %8, align 8, !tbaa !55
  %21 = getelementptr inbounds nuw %"class.std::__1::codecvt.37", ptr %16, i32 0, i32 1
  %22 = load ptr, ptr %21, align 8, !tbaa !480
  %23 = call noundef i64 @_ZNSt3__18__locale9__wcrtombB8ne210000EPcwP11__mbstate_tP15__locale_struct(ptr noundef %19, i32 noundef signext 0, ptr noundef %20, ptr noundef %22)
  store i64 %23, ptr %13, align 8, !tbaa !16
  %24 = load i64, ptr %13, align 8, !tbaa !16
  %25 = icmp eq i64 %24, -1
  br i1 %25, label %29, label %26

26:                                               ; preds = %5
  %27 = load i64, ptr %13, align 8, !tbaa !16
  %28 = icmp eq i64 %27, 0
  br i1 %28, label %29, label %30

29:                                               ; preds = %26, %5
  store i32 2, ptr %6, align 4
  store i32 1, ptr %14, align 4
  br label %59

30:                                               ; preds = %26
  %31 = load i64, ptr %13, align 8, !tbaa !16
  %32 = add i64 %31, -1
  store i64 %32, ptr %13, align 8, !tbaa !16
  %33 = load i64, ptr %13, align 8, !tbaa !16
  %34 = load ptr, ptr %10, align 8, !tbaa !9
  %35 = load ptr, ptr %11, align 8, !tbaa !95
  %36 = load ptr, ptr %35, align 8, !tbaa !9
  %37 = ptrtoint ptr %34 to i64
  %38 = ptrtoint ptr %36 to i64
  %39 = sub i64 %37, %38
  %40 = icmp ugt i64 %33, %39
  br i1 %40, label %41, label %42

41:                                               ; preds = %30
  store i32 1, ptr %6, align 4
  store i32 1, ptr %14, align 4
  br label %59

42:                                               ; preds = %30
  call void @llvm.lifetime.start.p0(i64 8, ptr %15) #13
  %43 = getelementptr inbounds [16 x i8], ptr %12, i64 0, i64 0
  store ptr %43, ptr %15, align 8, !tbaa !9
  br label %44

44:                                               ; preds = %55, %42
  %45 = load i64, ptr %13, align 8, !tbaa !16
  %46 = icmp ne i64 %45, 0
  br i1 %46, label %48, label %47

47:                                               ; preds = %44
  store i32 2, ptr %14, align 4
  call void @llvm.lifetime.end.p0(i64 8, ptr %15) #13
  br label %58

48:                                               ; preds = %44
  %49 = load ptr, ptr %15, align 8, !tbaa !9
  %50 = getelementptr inbounds nuw i8, ptr %49, i32 1
  store ptr %50, ptr %15, align 8, !tbaa !9
  %51 = load i8, ptr %49, align 1, !tbaa !11
  %52 = load ptr, ptr %11, align 8, !tbaa !95
  %53 = load ptr, ptr %52, align 8, !tbaa !9
  %54 = getelementptr inbounds nuw i8, ptr %53, i32 1
  store ptr %54, ptr %52, align 8, !tbaa !9
  store i8 %51, ptr %53, align 1, !tbaa !11
  br label %55

55:                                               ; preds = %48
  %56 = load i64, ptr %13, align 8, !tbaa !16
  %57 = add i64 %56, -1
  store i64 %57, ptr %13, align 8, !tbaa !16
  br label %44, !llvm.loop !494

58:                                               ; preds = %47
  store i32 0, ptr %6, align 4
  store i32 1, ptr %14, align 4
  br label %59

59:                                               ; preds = %58, %41, %29
  call void @llvm.lifetime.end.p0(i64 8, ptr %13) #13
  call void @llvm.lifetime.end.p0(i64 16, ptr %12) #13
  %60 = load i32, ptr %6, align 4
  ret i32 %60
}