; Function Attrs: mustprogress nounwind uwtable
define dso_local noundef range(i32 0, 3) i32 @_ZNKSt3__17codecvtIwc11__mbstate_tE10do_unshiftERS1_PcS4_RS4_(ptr noundef nonnull readonly align 8 captures(none) dereferenceable(24) %0, ptr noundef nonnull align 4 dereferenceable(8) %1, ptr noundef %2, ptr noundef %3, ptr noundef nonnull align 8 captures(none) dereferenceable(8) initializes((0, 8)) %4) unnamed_addr #0 align 2 {
  %6 = alloca [16 x i8], align 16
  store ptr %2, ptr %4, align 8, !tbaa !72
  call void @llvm.lifetime.start.p0(i64 16, ptr nonnull %6) #45
  %7 = getelementptr inbounds nuw i8, ptr %0, i64 16
  %8 = load ptr, ptr %7, align 8, !tbaa !338
  %9 = tail call ptr @uselocale(ptr noundef %8) #45
  %10 = call i64 @wcrtomb(ptr noundef nonnull %6, i32 noundef signext 0, ptr noundef nonnull %1) #45
  %.not.i.i = icmp eq ptr %9, null
  br i1 %.not.i.i, label %_ZNSt3__18__locale9__wcrtombB8ne210000EPcwP11__mbstate_tP15__locale_struct.exit, label %11

11:                                               ; preds = %5
  %12 = call ptr @uselocale(ptr noundef nonnull %9) #45
  br label %_ZNSt3__18__locale9__wcrtombB8ne210000EPcwP11__mbstate_tP15__locale_struct.exit

_ZNSt3__18__locale9__wcrtombB8ne210000EPcwP11__mbstate_tP15__locale_struct.exit: ; preds = %5, %11
  %13 = add i64 %10, 1
  %or.cond = icmp ult i64 %13, 2
  br i1 %or.cond, label %.loopexit, label %14

14:                                               ; preds = %_ZNSt3__18__locale9__wcrtombB8ne210000EPcwP11__mbstate_tP15__locale_struct.exit
  %15 = add i64 %10, -1
  %16 = load ptr, ptr %4, align 8, !tbaa !72
  %17 = ptrtoint ptr %3 to i64
  %18 = ptrtoint ptr %16 to i64
  %19 = sub i64 %17, %18
  %20 = icmp ugt i64 %15, %19
  br i1 %20, label %.loopexit, label %.preheader

.preheader:                                       ; preds = %14
  %.not19 = icmp eq i64 %15, 0
  br i1 %.not19, label %.loopexit, label %.lr.ph

.lr.ph:                                           ; preds = %.preheader, %.lr.ph
  %.021 = phi ptr [ %21, %.lr.ph ], [ %6, %.preheader ]
  %.01520 = phi i64 [ %25, %.lr.ph ], [ %15, %.preheader ]
  %21 = getelementptr inbounds nuw i8, ptr %.021, i64 1
  %22 = load i8, ptr %.021, align 1, !tbaa !4
  %23 = load ptr, ptr %4, align 8, !tbaa !72
  %24 = getelementptr inbounds nuw i8, ptr %23, i64 1
  store ptr %24, ptr %4, align 8, !tbaa !72
  store i8 %22, ptr %23, align 1, !tbaa !4
  %25 = add i64 %.01520, -1
  %.not = icmp eq i64 %25, 0
  br i1 %.not, label %.loopexit, label %.lr.ph, !llvm.loop !417

.loopexit:                                        ; preds = %.lr.ph, %.preheader, %14, %_ZNSt3__18__locale9__wcrtombB8ne210000EPcwP11__mbstate_tP15__locale_struct.exit
  %.016 = phi i32 [ 2, %_ZNSt3__18__locale9__wcrtombB8ne210000EPcwP11__mbstate_tP15__locale_struct.exit ], [ 1, %14 ], [ 0, %.preheader ], [ 0, %.lr.ph ]
  call void @llvm.lifetime.end.p0(i64 16, ptr nonnull %6) #45
  ret i32 %.016
}